target datalayout = "e-m:e-p270:32:32-p271:32:32-p272:64:64-i64:64-i128:128-f80:128-n8:16:32:64-S128"
target triple = "x86_64-pc-linux-gnu"

%class.QString = type { %struct.QArrayDataPointer }
%struct.QArrayDataPointer = type { ptr, ptr, i64 }
%class.FollowStreamDialog = type <{ %class.WiresharkDialog.base, [3 x i8], ptr, ptr, ptr, ptr, ptr, ptr, %struct._follow_info, ptr, %class.QString, %class.QString, %class.QString, i32, i32, i32, i32, i32, i8, [3 x i8], %struct.nstime_t, i32, i8, i8, [2 x i8], i32, [4 x i8] }>
%class.WiresharkDialog.base = type <{ %class.GeometryStateDialog, ptr, i8, [7 x i8], %class.QString, %class.QList, i32, i8 }>
%class.GeometryStateDialog = type { %class.QDialog, %class.QString, ptr }
%class.QDialog = type { %class.QWidget }
%class.QWidget = type { %class.QObject, %class.QPaintDevice.base, ptr }
%class.QObject = type { ptr, %class.QScopedPointer }
%class.QScopedPointer = type { ptr }
%class.QPaintDevice.base = type <{ ptr, i16 }>
%class.QList = type { %struct.QArrayDataPointer.0 }
%struct.QArrayDataPointer.0 = type { ptr, ptr, i64 }
%struct._follow_info = type { i32, ptr, ptr, [2 x i32], [2 x i32], [2 x ptr], i32, i32, %struct._address, %struct._address, ptr, i64 }
%struct._address = type { i32, i32, ptr, ptr }
%struct.nstime_t = type { i64, i32 }

; Function Attrs: mustprogress null_pointer_is_valid sspstrong uwtable
define void @_ZN18FollowStreamDialog17buttonBoxRejectedEv(ptr noundef align 8 dereferenceable_or_null(452) %0) #3 align 2 {
  %2 = alloca ptr, align 8
  store ptr %0, ptr %2, align 8
  %3 = load ptr, ptr %2, align 8
  %4 = getelementptr inbounds nuw %class.FollowStreamDialog, ptr %3, i32 0, i32 23
  %5 = load i8, ptr %4, align 1, !range !6, !noundef !7
  %6 = trunc i8 %5 to i1
  br i1 %6, label %7, label %8

7:                                                ; preds = %1
  br label %9

8:                                                ; preds = %1
  call void @_ZN15WiresharkDialog6rejectEv(ptr noundef align 8 dereferenceable_or_null(141) %3)
  br label %9

9:                                                ; preds = %8, %7
  ret void
}