; Function Attrs: mustprogress null_pointer_is_valid sspstrong uwtable
define void @_ZN18FollowStreamDialog17buttonBoxRejectedEv(ptr noundef align 8 dereferenceable_or_null(452) %0) #2 align 2 {
  %2 = getelementptr inbounds nuw i8, ptr %0, i64 445
  %3 = load i8, ptr %2, align 1, !range !54, !noundef !55
  %4 = trunc nuw i8 %3 to i1
  br i1 %4, label %6, label %5

5:                                                ; preds = %1
  tail call void @_ZN15WiresharkDialog6rejectEv(ptr noundef align 8 dereferenceable_or_null(141) %0)
  br label %6

6:                                                ; preds = %1, %5
  ret void
}